target datalayout = "e-m:e-p270:32:32-p271:32:32-p272:64:64-i64:64-i128:128-f80:128-n8:16:32:64-S128"
target triple = "x86_64-pc-linux-gnu"

%class.aiMatrix4x4t = type { double, double, double, double, double, double, double, double, double, double, double, double, double, double, double, double }
%"struct.std::_Rb_tree_header" = type { %"struct.std::_Rb_tree_node_base", i64 }
%"struct.std::_Rb_tree_node_base" = type { i32, ptr, ptr, ptr }
%"class.Assimp::STEP::EXPRESS::DataType" = type { ptr }
%"struct.Assimp::IFC::ConversionData" = type { double, double, i8, ptr, ptr, ptr, %class.aiMatrix4x4t, %"class.std::vector.37", %"class.std::vector.42", %"class.std::map.47", %"class.std::map.53", ptr, ptr, ptr, %"class.std::set" }
%"class.std::vector.37" = type { %"struct.std::_Vector_base.38" }
%"struct.std::_Vector_base.38" = type { %"struct.std::_Vector_base<aiMesh *, std::allocator<aiMesh *>>::_Vector_impl" }
%"struct.std::_Vector_base<aiMesh *, std::allocator<aiMesh *>>::_Vector_impl" = type { %"struct.std::_Vector_base<aiMesh *, std::allocator<aiMesh *>>::_Vector_impl_data" }
%"struct.std::_Vector_base<aiMesh *, std::allocator<aiMesh *>>::_Vector_impl_data" = type { ptr, ptr, ptr }
%"class.std::vector.42" = type { %"struct.std::_Vector_base.43" }
%"struct.std::_Vector_base.43" = type { %"struct.std::_Vector_base<aiMaterial *, std::allocator<aiMaterial *>>::_Vector_impl" }
%"struct.std::_Vector_base<aiMaterial *, std::allocator<aiMaterial *>>::_Vector_impl" = type { %"struct.std::_Vector_base<aiMaterial *, std::allocator<aiMaterial *>>::_Vector_impl_data" }
%"struct.std::_Vector_base<aiMaterial *, std::allocator<aiMaterial *>>::_Vector_impl_data" = type { ptr, ptr, ptr }
%"class.std::map.47" = type { %"class.std::_Rb_tree.48" }
%"class.std::_Rb_tree.48" = type { %"struct.std::_Rb_tree<Assimp::IFC::ConversionData::MeshCacheIndex, std::pair<const Assimp::IFC::ConversionData::MeshCacheIndex, std::set<unsigned int>>, std::_Select1st<std::pair<const Assimp::IFC::ConversionData::MeshCacheIndex, std::set<unsigned int>>>, std::less<Assimp::IFC::ConversionData::MeshCacheIndex>>::_Rb_tree_impl" }
%"struct.std::_Rb_tree<Assimp::IFC::ConversionData::MeshCacheIndex, std::pair<const Assimp::IFC::ConversionData::MeshCacheIndex, std::set<unsigned int>>, std::_Select1st<std::pair<const Assimp::IFC::ConversionData::MeshCacheIndex, std::set<unsigned int>>>, std::less<Assimp::IFC::ConversionData::MeshCacheIndex>>::_Rb_tree_impl" = type { [8 x i8], %"struct.std::_Rb_tree_header" }
%"class.std::map.53" = type { %"class.std::_Rb_tree.54" }
%"class.std::_Rb_tree.54" = type { %"struct.std::_Rb_tree<const Assimp::IFC::Schema_2x3::IfcSurfaceStyle *, std::pair<const Assimp::IFC::Schema_2x3::IfcSurfaceStyle *const, unsigned int>, std::_Select1st<std::pair<const Assimp::IFC::Schema_2x3::IfcSurfaceStyle *const, unsigned int>>, std::less<const Assimp::IFC::Schema_2x3::IfcSurfaceStyle *>>::_Rb_tree_impl" }
%"struct.std::_Rb_tree<const Assimp::IFC::Schema_2x3::IfcSurfaceStyle *, std::pair<const Assimp::IFC::Schema_2x3::IfcSurfaceStyle *const, unsigned int>, std::_Select1st<std::pair<const Assimp::IFC::Schema_2x3::IfcSurfaceStyle *const, unsigned int>>, std::less<const Assimp::IFC::Schema_2x3::IfcSurfaceStyle *>>::_Rb_tree_impl" = type { [8 x i8], %"struct.std::_Rb_tree_header" }
%"class.std::set" = type { %"class.std::_Rb_tree.59" }
%"class.std::_Rb_tree.59" = type { %"struct.std::_Rb_tree<unsigned long, unsigned long, std::_Identity<unsigned long>, std::less<unsigned long>>::_Rb_tree_impl" }
%"struct.std::_Rb_tree<unsigned long, unsigned long, std::_Identity<unsigned long>, std::less<unsigned long>>::_Rb_tree_impl" = type { [8 x i8], %"struct.std::_Rb_tree_header" }
%"class.Assimp::STEP::EXPRESS::PrimitiveDataType.145" = type { %"class.Assimp::STEP::EXPRESS::DataType", i64 }
%"class.Assimp::STEP::LazyObject" = type { i64, ptr, ptr, ptr, ptr }

@.str.23 = private unnamed_addr constant [42 x i8] c"skipping unknown IfcAxis2Placement entity\00", align 1
@_ZTIN6Assimp4STEP7EXPRESS8DataTypeE = linkonce_odr hidden constant { ptr, ptr } { ptr getelementptr inbounds (ptr, ptr @_ZTVN10__cxxabiv117__class_type_infoE, i64 2), ptr @_ZTSN6Assimp4STEP7EXPRESS8DataTypeE }, comdat, align 8
@_ZTIN6Assimp4STEP7EXPRESS6ENTITYE = linkonce_odr hidden constant { ptr, ptr, ptr } { ptr getelementptr inbounds (ptr, ptr @_ZTVN10__cxxabiv120__si_class_type_infoE, i64 2), ptr @_ZTSN6Assimp4STEP7EXPRESS6ENTITYE, ptr @_ZTIN6Assimp4STEP7EXPRESS17PrimitiveDataTypeImEE }, comdat, align 8
@_ZTIN6Assimp4STEP6ObjectE = linkonce_odr hidden constant { ptr, ptr } { ptr getelementptr inbounds (ptr, ptr @_ZTVN10__cxxabiv117__class_type_infoE, i64 2), ptr @_ZTSN6Assimp4STEP6ObjectE }, comdat, align 8

; Function Attrs: mustprogress uwtable
define linkonce_odr hidden noundef nonnull align 8 dereferenceable(24) ptr @_ZNK6Assimp4STEP10LazyObjectdeEv(ptr noundef nonnull align 8 dereferenceable(40) %0) #0 comdat align 2 {
  %2 = alloca ptr, align 8
  store ptr %0, ptr %2, align 8
  %3 = load ptr, ptr %2, align 8
  %4 = getelementptr inbounds nuw %"class.Assimp::STEP::LazyObject", ptr %3, i32 0, i32 4
  %5 = load ptr, ptr %4, align 8
  %6 = icmp ne ptr %5, null
  br i1 %6, label %8, label %7

7:                                                ; preds = %1
  call void @_ZNK6Assimp4STEP10LazyObject8LazyInitEv(ptr noundef nonnull align 8 dereferenceable(40) %3)
  br label %8

8:                                                ; preds = %7, %1
  %9 = getelementptr inbounds nuw %"class.Assimp::STEP::LazyObject", ptr %3, i32 0, i32 4
  %10 = load ptr, ptr %9, align 8
  ret ptr %10
}

; Function Attrs: mustprogress nounwind uwtable
define linkonce_odr hidden noundef ptr @_ZNK6Assimp4STEP6Object5ToPtrINS_3IFC10Schema_2x319IfcAxis2Placement2DEEEPKT_v(ptr noundef nonnull align 8 dereferenceable(24) %0) #1 comdat align 2 {
  %2 = alloca ptr, align 8
  store ptr %0, ptr %2, align 8
  %3 = load ptr, ptr %2, align 8
  %4 = icmp eq ptr %3, null
  br i1 %4, label %7, label %5

5:                                                ; preds = %1
  %6 = call ptr @__dynamic_cast(ptr %3, ptr @_ZTIN6Assimp4STEP6ObjectE, ptr @_ZTIN6Assimp3IFC10Schema_2x319IfcAxis2Placement2DE, i64 -1) #20
  br label %8

7:                                                ; preds = %1
  br label %8

8:                                                ; preds = %7, %5
  %9 = phi ptr [ %6, %5 ], [ null, %7 ]
  ret ptr %9
}

; Function Attrs: mustprogress nounwind uwtable
define linkonce_odr hidden noundef nonnull align 8 dereferenceable(384) ptr @_ZN6Assimp4STEP6CoupleINS_3IFC10Schema_2x319IfcAxis2Placement2DEKNS0_2DBEEERT0_S8_(ptr noundef nonnull align 8 dereferenceable(384) %0) #1 comdat {
  %2 = alloca ptr, align 8
  store ptr %0, ptr %2, align 8
  %3 = load ptr, ptr %2, align 8
  ret ptr %3
}

; Function Attrs: mustprogress nounwind uwtable
define linkonce_odr hidden noundef ptr @_ZNK6Assimp4STEP6Object5ToPtrINS_3IFC10Schema_2x319IfcAxis2Placement3DEEEPKT_v(ptr noundef nonnull align 8 dereferenceable(24) %0) #1 comdat align 2 {
  %2 = alloca ptr, align 8
  store ptr %0, ptr %2, align 8
  %3 = load ptr, ptr %2, align 8
  %4 = icmp eq ptr %3, null
  br i1 %4, label %7, label %5

5:                                                ; preds = %1
  %6 = call ptr @__dynamic_cast(ptr %3, ptr @_ZTIN6Assimp4STEP6ObjectE, ptr @_ZTIN6Assimp3IFC10Schema_2x319IfcAxis2Placement3DE, i64 -1) #20
  br label %8

7:                                                ; preds = %1
  br label %8

8:                                                ; preds = %7, %5
  %9 = phi ptr [ %6, %5 ], [ null, %7 ]
  ret ptr %9
}

; Function Attrs: mustprogress uwtable
define linkonce_odr hidden noundef ptr @_ZNK6Assimp4STEP10LazyObjectptEv(ptr noundef nonnull align 8 dereferenceable(40) %0) #0 comdat align 2 {
  %2 = alloca ptr, align 8
  store ptr %0, ptr %2, align 8
  %3 = load ptr, ptr %2, align 8
  %4 = call noundef nonnull align 8 dereferenceable(24) ptr @_ZNK6Assimp4STEP10LazyObjectdeEv(ptr noundef nonnull align 8 dereferenceable(40) %3)
  ret ptr %4
}

; Function Attrs: mustprogress nounwind uwtable
define linkonce_odr hidden noundef nonnull align 8 dereferenceable(8) ptr @_ZNK6Assimp4STEP7EXPRESS17PrimitiveDataTypeImEcvRKmEv(ptr noundef nonnull align 8 dereferenceable(16) %0) #1 comdat align 2 {
  %2 = alloca ptr, align 8
  store ptr %0, ptr %2, align 8
  %3 = load ptr, ptr %2, align 8
  %4 = getelementptr inbounds nuw %"class.Assimp::STEP::EXPRESS::PrimitiveDataType.145", ptr %3, i32 0, i32 1
  ret ptr %4
}

; Function Attrs: mustprogress nounwind uwtable
define linkonce_odr hidden noundef nonnull align 8 dereferenceable(384) ptr @_ZN6Assimp4STEP6CoupleINS_3IFC10Schema_2x319IfcAxis2Placement3DEKNS0_2DBEEERT0_S8_(ptr noundef nonnull align 8 dereferenceable(384) %0) #1 comdat {
  %2 = alloca ptr, align 8
  store ptr %0, ptr %2, align 8
  %3 = load ptr, ptr %2, align 8
  ret ptr %3
}

; Function Attrs: mustprogress nounwind uwtable
define linkonce_odr hidden noundef ptr @_ZNK6Assimp4STEP7EXPRESS8DataType5ToPtrINS1_6ENTITYEEEPKT_v(ptr noundef nonnull align 8 dereferenceable(8) %0) #1 comdat align 2 {
  %2 = alloca ptr, align 8
  store ptr %0, ptr %2, align 8
  %3 = load ptr, ptr %2, align 8
  %4 = icmp eq ptr %3, null
  br i1 %4, label %7, label %5

5:                                                ; preds = %1
  %6 = call ptr @__dynamic_cast(ptr %3, ptr @_ZTIN6Assimp4STEP7EXPRESS8DataTypeE, ptr @_ZTIN6Assimp4STEP7EXPRESS6ENTITYE, i64 0) #20
  br label %8

7:                                                ; preds = %1
  br label %8

8:                                                ; preds = %7, %5
  %9 = phi ptr [ %6, %5 ], [ null, %7 ]
  ret ptr %9
}

; Function Attrs: mustprogress uwtable
define linkonce_odr hidden void @_ZN6Assimp12LogFunctionsINS_11IFCImporterEE7LogWarnIJRA42_KcEEEvDpOT_(ptr noundef nonnull align 1 dereferenceable(42) %0) #0 comdat align 2 {
  %2 = alloca ptr, align 8
  %3 = alloca ptr, align 8
  store ptr %0, ptr %2, align 8
  %4 = call noundef zeroext i1 @_ZN6Assimp13DefaultLogger12isNullLoggerEv()
  br i1 %4, label %9, label %5

5:                                                ; preds = %1
  %6 = call noundef ptr @_ZN6Assimp13DefaultLogger3getEv()
  call void @llvm.lifetime.start.p0(i64 8, ptr %3) #20
  %7 = call noundef ptr @_ZN6Assimp12LogFunctionsINS_11IFCImporterEE6PrefixEv()
  store ptr %7, ptr %3, align 8
  %8 = load ptr, ptr %2, align 8
  call void @_ZN6Assimp6Logger4warnIJPKcRA42_S2_EEEvDpOT_(ptr noundef nonnull align 8 dereferenceable(12) %6, ptr noundef nonnull align 8 dereferenceable(8) %3, ptr noundef nonnull align 1 dereferenceable(42) %8)
  call void @llvm.lifetime.end.p0(i64 8, ptr %3) #20
  br label %9

9:                                                ; preds = %5, %1
  ret void
}

; Function Attrs: mustprogress uwtable
define linkonce_odr hidden noundef ptr @_ZNK6Assimp4STEP7EXPRESS8DataType16ResolveSelectPtrINS_3IFC10Schema_2x319IfcAxis2Placement2DEEEPKT_RKNS0_2DBE(ptr noundef nonnull align 8 dereferenceable(8) %0, ptr noundef nonnull align 8 dereferenceable(384) %1) #0 comdat align 2 {
  %3 = alloca ptr, align 8
  %4 = alloca ptr, align 8
  %5 = alloca ptr, align 8
  store ptr %0, ptr %3, align 8
  store ptr %1, ptr %4, align 8
  %6 = load ptr, ptr %3, align 8
  call void @llvm.lifetime.start.p0(i64 8, ptr %5) #20
  %7 = call noundef ptr @_ZNK6Assimp4STEP7EXPRESS8DataType5ToPtrINS1_6ENTITYEEEPKT_v(ptr noundef nonnull align 8 dereferenceable(8) %6)
  store ptr %7, ptr %5, align 8
  %8 = load ptr, ptr %5, align 8
  %9 = icmp ne ptr %8, null
  br i1 %9, label %10, label %19

10:                                               ; preds = %2
  %11 = load ptr, ptr %4, align 8
  %12 = call noundef nonnull align 8 dereferenceable(384) ptr @_ZN6Assimp4STEP6CoupleINS_3IFC10Schema_2x319IfcAxis2Placement2DEKNS0_2DBEEERT0_S8_(ptr noundef nonnull align 8 dereferenceable(384) %11)
  %13 = load ptr, ptr %5, align 8
  %14 = call noundef nonnull align 8 dereferenceable(8) ptr @_ZNK6Assimp4STEP7EXPRESS17PrimitiveDataTypeImEcvRKmEv(ptr noundef nonnull align 8 dereferenceable(16) %13)
  %15 = load i64, ptr %14, align 8
  %16 = call noundef nonnull align 8 dereferenceable(40) ptr @_ZNK6Assimp4STEP2DB13MustGetObjectEm(ptr noundef nonnull align 8 dereferenceable(384) %12, i64 noundef %15)
  %17 = call noundef ptr @_ZNK6Assimp4STEP10LazyObjectptEv(ptr noundef nonnull align 8 dereferenceable(40) %16)
  %18 = call noundef ptr @_ZNK6Assimp4STEP6Object5ToPtrINS_3IFC10Schema_2x319IfcAxis2Placement2DEEEPKT_v(ptr noundef nonnull align 8 dereferenceable(24) %17)
  br label %20

19:                                               ; preds = %2
  br label %20

20:                                               ; preds = %19, %10
  %21 = phi ptr [ %18, %10 ], [ null, %19 ]
  call void @llvm.lifetime.end.p0(i64 8, ptr %5) #20
  ret ptr %21
}

; Function Attrs: mustprogress uwtable
define linkonce_odr hidden noundef ptr @_ZNK6Assimp4STEP7EXPRESS8DataType16ResolveSelectPtrINS_3IFC10Schema_2x319IfcAxis2Placement3DEEEPKT_RKNS0_2DBE(ptr noundef nonnull align 8 dereferenceable(8) %0, ptr noundef nonnull align 8 dereferenceable(384) %1) #0 comdat align 2 {
  %3 = alloca ptr, align 8
  %4 = alloca ptr, align 8
  %5 = alloca ptr, align 8
  store ptr %0, ptr %3, align 8
  store ptr %1, ptr %4, align 8
  %6 = load ptr, ptr %3, align 8
  call void @llvm.lifetime.start.p0(i64 8, ptr %5) #20
  %7 = call noundef ptr @_ZNK6Assimp4STEP7EXPRESS8DataType5ToPtrINS1_6ENTITYEEEPKT_v(ptr noundef nonnull align 8 dereferenceable(8) %6)
  store ptr %7, ptr %5, align 8
  %8 = load ptr, ptr %5, align 8
  %9 = icmp ne ptr %8, null
  br i1 %9, label %10, label %19

10:                                               ; preds = %2
  %11 = load ptr, ptr %4, align 8
  %12 = call noundef nonnull align 8 dereferenceable(384) ptr @_ZN6Assimp4STEP6CoupleINS_3IFC10Schema_2x319IfcAxis2Placement3DEKNS0_2DBEEERT0_S8_(ptr noundef nonnull align 8 dereferenceable(384) %11)
  %13 = load ptr, ptr %5, align 8
  %14 = call noundef nonnull align 8 dereferenceable(8) ptr @_ZNK6Assimp4STEP7EXPRESS17PrimitiveDataTypeImEcvRKmEv(ptr noundef nonnull align 8 dereferenceable(16) %13)
  %15 = load i64, ptr %14, align 8
  %16 = call noundef nonnull align 8 dereferenceable(40) ptr @_ZNK6Assimp4STEP2DB13MustGetObjectEm(ptr noundef nonnull align 8 dereferenceable(384) %12, i64 noundef %15)
  %17 = call noundef ptr @_ZNK6Assimp4STEP10LazyObjectptEv(ptr noundef nonnull align 8 dereferenceable(40) %16)
  %18 = call noundef ptr @_ZNK6Assimp4STEP6Object5ToPtrINS_3IFC10Schema_2x319IfcAxis2Placement3DEEEPKT_v(ptr noundef nonnull align 8 dereferenceable(24) %17)
  br label %20

19:                                               ; preds = %2
  br label %20

20:                                               ; preds = %19, %10
  %21 = phi ptr [ %18, %10 ], [ null, %19 ]
  call void @llvm.lifetime.end.p0(i64 8, ptr %5) #20
  ret ptr %21
}

; Function Attrs: mustprogress uwtable
define hidden void @_ZN6Assimp3IFC20ConvertAxisPlacementER12aiMatrix4x4tIdERKNS_4STEP7EXPRESS8DataTypeERNS0_14ConversionDataE(ptr noundef nonnull align 8 dereferenceable(128) %0, ptr noundef nonnull align 8 dereferenceable(8) %1, ptr noundef nonnull align 8 dereferenceable(392) %2) #0 {
  %4 = alloca ptr, align 8
  %5 = alloca ptr, align 8
  %6 = alloca ptr, align 8
  %7 = alloca ptr, align 8
  %8 = alloca ptr, align 8
  store ptr %0, ptr %4, align 8
  store ptr %1, ptr %5, align 8
  store ptr %2, ptr %6, align 8
  call void @llvm.lifetime.start.p0(i64 8, ptr %7) #20
  %9 = load ptr, ptr %5, align 8
  %10 = load ptr, ptr %6, align 8
  %11 = getelementptr inbounds nuw %"struct.Assimp::IFC::ConversionData", ptr %10, i32 0, i32 3
  %12 = load ptr, ptr %11, align 8
  %13 = call noundef ptr @_ZNK6Assimp4STEP7EXPRESS8DataType16ResolveSelectPtrINS_3IFC10Schema_2x319IfcAxis2Placement3DEEEPKT_RKNS0_2DBE(ptr noundef nonnull align 8 dereferenceable(8) %9, ptr noundef nonnull align 8 dereferenceable(384) %12)
  store ptr %13, ptr %7, align 8
  %14 = load ptr, ptr %7, align 8
  %15 = icmp ne ptr %14, null
  br i1 %15, label %16, label %19

16:                                               ; preds = %3
  %17 = load ptr, ptr %4, align 8
  %18 = load ptr, ptr %7, align 8
  call void @_ZN6Assimp3IFC20ConvertAxisPlacementER12aiMatrix4x4tIdERKNS0_10Schema_2x319IfcAxis2Placement3DE(ptr noundef nonnull align 8 dereferenceable(128) %17, ptr noundef nonnull align 8 dereferenceable(104) %18)
  br label %32

19:                                               ; preds = %3
  call void @llvm.lifetime.start.p0(i64 8, ptr %8) #20
  %20 = load ptr, ptr %5, align 8
  %21 = load ptr, ptr %6, align 8
  %22 = getelementptr inbounds nuw %"struct.Assimp::IFC::ConversionData", ptr %21, i32 0, i32 3
  %23 = load ptr, ptr %22, align 8
  %24 = call noundef ptr @_ZNK6Assimp4STEP7EXPRESS8DataType16ResolveSelectPtrINS_3IFC10Schema_2x319IfcAxis2Placement2DEEEPKT_RKNS0_2DBE(ptr noundef nonnull align 8 dereferenceable(8) %20, ptr noundef nonnull align 8 dereferenceable(384) %23)
  store ptr %24, ptr %8, align 8
  %25 = load ptr, ptr %8, align 8
  %26 = icmp ne ptr %25, null
  br i1 %26, label %27, label %30

27:                                               ; preds = %19
  %28 = load ptr, ptr %4, align 8
  %29 = load ptr, ptr %8, align 8
  call void @_ZN6Assimp3IFC20ConvertAxisPlacementER12aiMatrix4x4tIdERKNS0_10Schema_2x319IfcAxis2Placement2DE(ptr noundef nonnull align 8 dereferenceable(128) %28, ptr noundef nonnull align 8 dereferenceable(88) %29)
  br label %31

30:                                               ; preds = %19
  call void @_ZN6Assimp12LogFunctionsINS_11IFCImporterEE7LogWarnIJRA42_KcEEEvDpOT_(ptr noundef nonnull align 1 dereferenceable(42) @.str.23)
  br label %31

31:                                               ; preds = %30, %27
  call void @llvm.lifetime.end.p0(i64 8, ptr %8) #20
  br label %32

32:                                               ; preds = %31, %16
  call void @llvm.lifetime.end.p0(i64 8, ptr %7) #20
  ret void
}