; Function Attrs: mustprogress uwtable
define hidden void @_ZN6Assimp3IFC20ConvertAxisPlacementER12aiMatrix4x4tIdERKNS_4STEP7EXPRESS8DataTypeERNS0_14ConversionDataE(ptr noundef nonnull writeonly align 8 captures(none) dereferenceable(128) %0, ptr noundef nonnull readonly align 8 dereferenceable(8) %1, ptr noundef nonnull readonly align 8 captures(none) dereferenceable(392) %2) local_unnamed_addr #7 {
  %4 = alloca ptr, align 8
  %5 = getelementptr inbounds nuw i8, ptr %2, i64 24
  %6 = tail call noundef ptr @__dynamic_cast(ptr nonnull align 8 dereferenceable(8) %1, ptr nonnull @_ZTIN6Assimp4STEP7EXPRESS8DataTypeE, ptr nonnull @_ZTIN6Assimp4STEP7EXPRESS6ENTITYE, i64 0) #25
  %.not.i = icmp eq ptr %6, null
  br i1 %.not.i, label %_ZNK6Assimp4STEP7EXPRESS8DataType16ResolveSelectPtrINS_3IFC10Schema_2x319IfcAxis2Placement3DEEEPKT_RKNS0_2DBE.exit.thread, label %7

7:                                                ; preds = %3
  %8 = load ptr, ptr %5, align 8
  %9 = getelementptr inbounds nuw i8, ptr %6, i64 8
  %10 = load i64, ptr %9, align 8
  %11 = tail call noundef nonnull align 8 dereferenceable(40) ptr @_ZNK6Assimp4STEP2DB13MustGetObjectEm(ptr noundef nonnull align 8 dereferenceable(384) %8, i64 noundef %10)
  %12 = getelementptr inbounds nuw i8, ptr %11, i64 32
  %13 = load ptr, ptr %12, align 8
  %.not.i.i.i = icmp eq ptr %13, null
  br i1 %.not.i.i.i, label %14, label %_ZNK6Assimp4STEP7EXPRESS8DataType16ResolveSelectPtrINS_3IFC10Schema_2x319IfcAxis2Placement3DEEEPKT_RKNS0_2DBE.exit

14:                                               ; preds = %7
  tail call void @_ZNK6Assimp4STEP10LazyObject8LazyInitEv(ptr noundef nonnull align 8 dereferenceable(40) %11)
  %.pre.i.i.i = load ptr, ptr %12, align 8
  br label %_ZNK6Assimp4STEP7EXPRESS8DataType16ResolveSelectPtrINS_3IFC10Schema_2x319IfcAxis2Placement3DEEEPKT_RKNS0_2DBE.exit

_ZNK6Assimp4STEP7EXPRESS8DataType16ResolveSelectPtrINS_3IFC10Schema_2x319IfcAxis2Placement3DEEEPKT_RKNS0_2DBE.exit: ; preds = %7, %14
  %15 = phi ptr [ %.pre.i.i.i, %14 ], [ %13, %7 ]
  %16 = tail call noundef ptr @__dynamic_cast(ptr nonnull align 8 dereferenceable(24) %15, ptr nonnull @_ZTIN6Assimp4STEP6ObjectE, ptr nonnull @_ZTIN6Assimp3IFC10Schema_2x319IfcAxis2Placement3DE, i64 -1) #25
  %.not = icmp eq ptr %16, null
  br i1 %.not, label %_ZNK6Assimp4STEP7EXPRESS8DataType16ResolveSelectPtrINS_3IFC10Schema_2x319IfcAxis2Placement3DEEEPKT_RKNS0_2DBE.exit.thread, label %17

17:                                               ; preds = %_ZNK6Assimp4STEP7EXPRESS8DataType16ResolveSelectPtrINS_3IFC10Schema_2x319IfcAxis2Placement3DEEEPKT_RKNS0_2DBE.exit
  tail call void @_ZN6Assimp3IFC20ConvertAxisPlacementER12aiMatrix4x4tIdERKNS0_10Schema_2x319IfcAxis2Placement3DE(ptr noundef nonnull align 8 dereferenceable(128) %0, ptr noundef nonnull align 8 dereferenceable(104) %16)
  br label %_ZN6Assimp12LogFunctionsINS_11IFCImporterEE7LogWarnIJRA42_KcEEEvDpOT_.exit

_ZNK6Assimp4STEP7EXPRESS8DataType16ResolveSelectPtrINS_3IFC10Schema_2x319IfcAxis2Placement3DEEEPKT_RKNS0_2DBE.exit.thread: ; preds = %3, %_ZNK6Assimp4STEP7EXPRESS8DataType16ResolveSelectPtrINS_3IFC10Schema_2x319IfcAxis2Placement3DEEEPKT_RKNS0_2DBE.exit
  %18 = tail call noundef ptr @__dynamic_cast(ptr nonnull align 8 dereferenceable(8) %1, ptr nonnull @_ZTIN6Assimp4STEP7EXPRESS8DataTypeE, ptr nonnull @_ZTIN6Assimp4STEP7EXPRESS6ENTITYE, i64 0) #25
  %.not.i12 = icmp eq ptr %18, null
  br i1 %.not.i12, label %_ZNK6Assimp4STEP7EXPRESS8DataType16ResolveSelectPtrINS_3IFC10Schema_2x319IfcAxis2Placement2DEEEPKT_RKNS0_2DBE.exit.thread, label %19

19:                                               ; preds = %_ZNK6Assimp4STEP7EXPRESS8DataType16ResolveSelectPtrINS_3IFC10Schema_2x319IfcAxis2Placement3DEEEPKT_RKNS0_2DBE.exit.thread
  %20 = load ptr, ptr %5, align 8
  %21 = getelementptr inbounds nuw i8, ptr %18, i64 8
  %22 = load i64, ptr %21, align 8
  %23 = tail call noundef nonnull align 8 dereferenceable(40) ptr @_ZNK6Assimp4STEP2DB13MustGetObjectEm(ptr noundef nonnull align 8 dereferenceable(384) %20, i64 noundef %22)
  %24 = getelementptr inbounds nuw i8, ptr %23, i64 32
  %25 = load ptr, ptr %24, align 8
  %.not.i.i.i13 = icmp eq ptr %25, null
  br i1 %.not.i.i.i13, label %26, label %_ZNK6Assimp4STEP7EXPRESS8DataType16ResolveSelectPtrINS_3IFC10Schema_2x319IfcAxis2Placement2DEEEPKT_RKNS0_2DBE.exit

26:                                               ; preds = %19
  tail call void @_ZNK6Assimp4STEP10LazyObject8LazyInitEv(ptr noundef nonnull align 8 dereferenceable(40) %23)
  %.pre.i.i.i15 = load ptr, ptr %24, align 8
  br label %_ZNK6Assimp4STEP7EXPRESS8DataType16ResolveSelectPtrINS_3IFC10Schema_2x319IfcAxis2Placement2DEEEPKT_RKNS0_2DBE.exit

_ZNK6Assimp4STEP7EXPRESS8DataType16ResolveSelectPtrINS_3IFC10Schema_2x319IfcAxis2Placement2DEEEPKT_RKNS0_2DBE.exit: ; preds = %19, %26
  %27 = phi ptr [ %.pre.i.i.i15, %26 ], [ %25, %19 ]
  %28 = tail call noundef ptr @__dynamic_cast(ptr nonnull align 8 dereferenceable(24) %27, ptr nonnull @_ZTIN6Assimp4STEP6ObjectE, ptr nonnull @_ZTIN6Assimp3IFC10Schema_2x319IfcAxis2Placement2DE, i64 -1) #25
  %.not11 = icmp eq ptr %28, null
  br i1 %.not11, label %_ZNK6Assimp4STEP7EXPRESS8DataType16ResolveSelectPtrINS_3IFC10Schema_2x319IfcAxis2Placement2DEEEPKT_RKNS0_2DBE.exit.thread, label %29

29:                                               ; preds = %_ZNK6Assimp4STEP7EXPRESS8DataType16ResolveSelectPtrINS_3IFC10Schema_2x319IfcAxis2Placement2DEEEPKT_RKNS0_2DBE.exit
  tail call void @_ZN6Assimp3IFC20ConvertAxisPlacementER12aiMatrix4x4tIdERKNS0_10Schema_2x319IfcAxis2Placement2DE(ptr noundef nonnull align 8 dereferenceable(128) %0, ptr noundef nonnull align 8 dereferenceable(88) %28)
  br label %_ZN6Assimp12LogFunctionsINS_11IFCImporterEE7LogWarnIJRA42_KcEEEvDpOT_.exit

_ZNK6Assimp4STEP7EXPRESS8DataType16ResolveSelectPtrINS_3IFC10Schema_2x319IfcAxis2Placement2DEEEPKT_RKNS0_2DBE.exit.thread: ; preds = %_ZNK6Assimp4STEP7EXPRESS8DataType16ResolveSelectPtrINS_3IFC10Schema_2x319IfcAxis2Placement3DEEEPKT_RKNS0_2DBE.exit.thread, %_ZNK6Assimp4STEP7EXPRESS8DataType16ResolveSelectPtrINS_3IFC10Schema_2x319IfcAxis2Placement2DEEEPKT_RKNS0_2DBE.exit
  %30 = tail call noundef zeroext i1 @_ZN6Assimp13DefaultLogger12isNullLoggerEv()
  br i1 %30, label %_ZN6Assimp12LogFunctionsINS_11IFCImporterEE7LogWarnIJRA42_KcEEEvDpOT_.exit, label %31

31:                                               ; preds = %_ZNK6Assimp4STEP7EXPRESS8DataType16ResolveSelectPtrINS_3IFC10Schema_2x319IfcAxis2Placement2DEEEPKT_RKNS0_2DBE.exit.thread
  %32 = tail call noundef ptr @_ZN6Assimp13DefaultLogger3getEv()
  call void @llvm.lifetime.start.p0(i64 8, ptr nonnull %4) #25
  %33 = tail call noundef ptr @_ZN6Assimp12LogFunctionsINS_11IFCImporterEE6PrefixEv()
  store ptr %33, ptr %4, align 8
  call void @_ZN6Assimp6Logger4warnIJPKcRA42_S2_EEEvDpOT_(ptr noundef nonnull align 8 dereferenceable(12) %32, ptr noundef nonnull align 8 dereferenceable(8) %4, ptr noundef nonnull align 1 dereferenceable(42) @.str.23)
  call void @llvm.lifetime.end.p0(i64 8, ptr nonnull %4) #25
  br label %_ZN6Assimp12LogFunctionsINS_11IFCImporterEE7LogWarnIJRA42_KcEEEvDpOT_.exit

_ZN6Assimp12LogFunctionsINS_11IFCImporterEE7LogWarnIJRA42_KcEEEvDpOT_.exit: ; preds = %31, %_ZNK6Assimp4STEP7EXPRESS8DataType16ResolveSelectPtrINS_3IFC10Schema_2x319IfcAxis2Placement2DEEEPKT_RKNS0_2DBE.exit.thread, %29, %17
  ret void
}